target datalayout = "e-m:e-p270:32:32-p271:32:32-p272:64:64-i64:64-i128:128-f80:128-n8:16:32:64-S128"
target triple = "x86_64-pc-linux-gnu"

@H5_libinit_g = external global i8, align 1
@H5_libterm_g = external global i8, align 1
@.str.1 = private unnamed_addr constant [103 x i8] c"generated/home/dtcxzyw/WorkSpace/Projects/compilers/llvm-opt-benchmark/bench/hdf5/hdf5/src/H5Sselect.c\00", align 1
@H5E_FUNC_g = external global i64, align 8
@H5E_CANTINIT_g = external global i64, align 8
@.str.2 = private unnamed_addr constant [30 x i8] c"library initialization failed\00", align 1
@H5E_CANTSET_g = external global i64, align 8
@.str.3 = private unnamed_addr constant [22 x i8] c"can't set API context\00", align 1
@H5E_DATASPACE_g = external global i64, align 8
@.str.4 = private unnamed_addr constant [16 x i8] c"not a dataspace\00", align 1
@__func__.H5Sselect_copy = private unnamed_addr constant [15 x i8] c"H5Sselect_copy\00", align 1
@H5E_ARGS_g = external global i64, align 8
@H5E_BADTYPE_g = external global i64, align 8
@H5E_CANTCOPY_g = external global i64, align 8
@.str.7 = private unnamed_addr constant [21 x i8] c"can't copy selection\00", align 1

; Function Attrs: nounwind uwtable
define i32 @H5Sselect_copy(i64 noundef %0, i64 noundef %1) #0 {
  %3 = alloca i64, align 8
  %4 = alloca i64, align 8
  %5 = alloca ptr, align 8
  %6 = alloca ptr, align 8
  %7 = alloca i32, align 4
  %8 = alloca i8, align 1
  %9 = alloca i8, align 1
  store i64 %0, ptr %3, align 8
  store i64 %1, ptr %4, align 8
  store i32 0, ptr %7, align 4
  store i8 0, ptr %8, align 1
  store i8 0, ptr %9, align 1
  %10 = load i8, ptr @H5_libinit_g, align 1
  %11 = trunc i8 %10 to i1
  br i1 %11, label %16, label %12

12:                                               ; preds = %2
  %13 = load i8, ptr @H5_libterm_g, align 1
  %14 = trunc i8 %13 to i1
  %15 = xor i1 %14, true
  br label %16

16:                                               ; preds = %12, %2
  %17 = phi i1 [ false, %2 ], [ %15, %12 ]
  %18 = xor i1 %17, true
  %19 = xor i1 %18, true
  %20 = zext i1 %19 to i32
  %21 = sext i32 %20 to i64
  %22 = icmp ne i64 %21, 0
  br i1 %22, label %23, label %47

23:                                               ; preds = %16
  %24 = call i32 @H5_init_library()
  %25 = icmp slt i32 %24, 0
  %26 = xor i1 %25, true
  %27 = xor i1 %26, true
  %28 = zext i1 %27 to i32
  %29 = sext i32 %28 to i64
  %30 = icmp ne i64 %29, 0
  br i1 %30, label %31, label %46

31:                                               ; preds = %23
  br label %32

32:                                               ; preds = %31
  br label %33

33:                                               ; preds = %32
  br label %34

34:                                               ; preds = %33
  %35 = load i64, ptr @H5E_FUNC_g, align 8
  %36 = load i64, ptr @H5E_CANTINIT_g, align 8
  %37 = call i32 (ptr, ptr, i32, i64, i64, ptr, ...) @H5E_printf_stack(ptr noundef @.str.1, ptr noundef @__func__.H5Sselect_copy, i32 noundef 177, i64 noundef %35, i64 noundef %36, ptr noundef @.str.2)
  br label %38

38:                                               ; preds = %34
  store i8 1, ptr %9, align 1
  %39 = load i8, ptr %9, align 1
  %40 = trunc i8 %39 to i1
  %41 = zext i1 %40 to i8
  store i8 %41, ptr %9, align 1
  br label %42

42:                                               ; preds = %38
  br label %43

43:                                               ; preds = %42
  store i32 -1, ptr %7, align 4
  br label %131

44:                                               ; No predecessors!
  br label %45

45:                                               ; preds = %44
  br label %46

46:                                               ; preds = %45, %23
  br label %47

47:                                               ; preds = %46, %16
  %48 = call i32 @H5CX_push()
  %49 = icmp slt i32 %48, 0
  %50 = xor i1 %49, true
  %51 = xor i1 %50, true
  %52 = zext i1 %51 to i32
  %53 = sext i32 %52 to i64
  %54 = icmp ne i64 %53, 0
  br i1 %54, label %55, label %70

55:                                               ; preds = %47
  br label %56

56:                                               ; preds = %55
  br label %57

57:                                               ; preds = %56
  br label %58

58:                                               ; preds = %57
  %59 = load i64, ptr @H5E_FUNC_g, align 8
  %60 = load i64, ptr @H5E_CANTSET_g, align 8
  %61 = call i32 (ptr, ptr, i32, i64, i64, ptr, ...) @H5E_printf_stack(ptr noundef @.str.1, ptr noundef @__func__.H5Sselect_copy, i32 noundef 177, i64 noundef %59, i64 noundef %60, ptr noundef @.str.3)
  br label %62

62:                                               ; preds = %58
  store i8 1, ptr %9, align 1
  %63 = load i8, ptr %9, align 1
  %64 = trunc i8 %63 to i1
  %65 = zext i1 %64 to i8
  store i8 %65, ptr %9, align 1
  br label %66

66:                                               ; preds = %62
  br label %67

67:                                               ; preds = %66
  store i32 -1, ptr %7, align 4
  br label %131

68:                                               ; No predecessors!
  br label %69

69:                                               ; preds = %68
  br label %71

70:                                               ; preds = %47
  store i8 1, ptr %8, align 1
  br label %71

71:                                               ; preds = %70, %69
  %72 = call i32 @H5E_clear_stack()
  %73 = load i64, ptr %4, align 8
  %74 = call ptr @H5I_object_verify(i64 noundef %73, i32 noundef 4)
  store ptr %74, ptr %5, align 8
  %75 = icmp eq ptr null, %74
  br i1 %75, label %76, label %91

76:                                               ; preds = %71
  br label %77

77:                                               ; preds = %76
  br label %78

78:                                               ; preds = %77
  br label %79

79:                                               ; preds = %78
  %80 = load i64, ptr @H5E_ARGS_g, align 8
  %81 = load i64, ptr @H5E_BADTYPE_g, align 8
  %82 = call i32 (ptr, ptr, i32, i64, i64, ptr, ...) @H5E_printf_stack(ptr noundef @.str.1, ptr noundef @__func__.H5Sselect_copy, i32 noundef 181, i64 noundef %80, i64 noundef %81, ptr noundef @.str.4)
  br label %83

83:                                               ; preds = %79
  store i8 1, ptr %9, align 1
  %84 = load i8, ptr %9, align 1
  %85 = trunc i8 %84 to i1
  %86 = zext i1 %85 to i8
  store i8 %86, ptr %9, align 1
  br label %87

87:                                               ; preds = %83
  br label %88

88:                                               ; preds = %87
  store i32 -1, ptr %7, align 4
  br label %131

89:                                               ; No predecessors!
  br label %90

90:                                               ; preds = %89
  br label %91

91:                                               ; preds = %90, %71
  %92 = load i64, ptr %3, align 8
  %93 = call ptr @H5I_object_verify(i64 noundef %92, i32 noundef 4)
  store ptr %93, ptr %6, align 8
  %94 = icmp eq ptr null, %93
  br i1 %94, label %95, label %110

95:                                               ; preds = %91
  br label %96

96:                                               ; preds = %95
  br label %97

97:                                               ; preds = %96
  br label %98

98:                                               ; preds = %97
  %99 = load i64, ptr @H5E_ARGS_g, align 8
  %100 = load i64, ptr @H5E_BADTYPE_g, align 8
  %101 = call i32 (ptr, ptr, i32, i64, i64, ptr, ...) @H5E_printf_stack(ptr noundef @.str.1, ptr noundef @__func__.H5Sselect_copy, i32 noundef 183, i64 noundef %99, i64 noundef %100, ptr noundef @.str.4)
  br label %102

102:                                              ; preds = %98
  store i8 1, ptr %9, align 1
  %103 = load i8, ptr %9, align 1
  %104 = trunc i8 %103 to i1
  %105 = zext i1 %104 to i8
  store i8 %105, ptr %9, align 1
  br label %106

106:                                              ; preds = %102
  br label %107

107:                                              ; preds = %106
  store i32 -1, ptr %7, align 4
  br label %131

108:                                              ; No predecessors!
  br label %109

109:                                              ; preds = %108
  br label %110

110:                                              ; preds = %109, %91
  %111 = load ptr, ptr %6, align 8
  %112 = load ptr, ptr %5, align 8
  %113 = call i32 @H5S_select_copy(ptr noundef %111, ptr noundef %112, i1 noundef zeroext false)
  %114 = icmp slt i32 %113, 0
  br i1 %114, label %115, label %130

115:                                              ; preds = %110
  br label %116

116:                                              ; preds = %115
  br label %117

117:                                              ; preds = %116
  br label %118

118:                                              ; preds = %117
  %119 = load i64, ptr @H5E_DATASPACE_g, align 8
  %120 = load i64, ptr @H5E_CANTCOPY_g, align 8
  %121 = call i32 (ptr, ptr, i32, i64, i64, ptr, ...) @H5E_printf_stack(ptr noundef @.str.1, ptr noundef @__func__.H5Sselect_copy, i32 noundef 187, i64 noundef %119, i64 noundef %120, ptr noundef @.str.7)
  br label %122

122:                                              ; preds = %118
  store i8 1, ptr %9, align 1
  %123 = load i8, ptr %9, align 1
  %124 = trunc i8 %123 to i1
  %125 = zext i1 %124 to i8
  store i8 %125, ptr %9, align 1
  br label %126

126:                                              ; preds = %122
  br label %127

127:                                              ; preds = %126
  store i32 -1, ptr %7, align 4
  br label %131

128:                                              ; No predecessors!
  br label %129

129:                                              ; preds = %128
  br label %130

130:                                              ; preds = %129, %110
  br label %131

131:                                              ; preds = %130, %127, %107, %88, %67, %43
  %132 = load i8, ptr %8, align 1
  %133 = trunc i8 %132 to i1
  %134 = xor i1 %133, true
  %135 = xor i1 %134, true
  %136 = zext i1 %135 to i32
  %137 = sext i32 %136 to i64
  %138 = icmp ne i64 %137, 0
  br i1 %138, label %139, label %141

139:                                              ; preds = %131
  %140 = call i32 @H5CX_pop(i1 noundef zeroext true)
  store i8 0, ptr %8, align 1
  br label %141

141:                                              ; preds = %139, %131
  %142 = load i8, ptr %9, align 1
  %143 = trunc i8 %142 to i1
  %144 = xor i1 %143, true
  %145 = xor i1 %144, true
  %146 = zext i1 %145 to i32
  %147 = sext i32 %146 to i64
  %148 = icmp ne i64 %147, 0
  br i1 %148, label %149, label %151

149:                                              ; preds = %141
  %150 = call i32 @H5E_dump_api_stack()
  br label %151

151:                                              ; preds = %149, %141
  %152 = load i32, ptr %7, align 4
  ret i32 %152
}